target datalayout = "e-m:e-p270:32:32-p271:32:32-p272:64:64-i64:64-i128:128-f80:128-n8:16:32:64-S128"
target triple = "x86_64-pc-linux-gnu"

%struct.AllocateDesc = type { i32, i32, %union.anon }
%union.anon = type { ptr }
%struct.vfd = type { i32, i16, ptr, i32, i32, i32, i64, ptr, i32, i32 }

@max_safe_fds = dso_local global i32 48, align 4
@.str.1 = private unnamed_addr constant [5 x i8] c"fd.c\00", align 1
@VfdCache = internal global ptr null, align 8
@numExternalFDs = internal global i32 0, align 4
@nfile = internal global i32 0, align 4
@.str.26 = private unnamed_addr constant [63 x i8] c"exceeded maxAllocatedDescs (%d) while trying to open file \22%s\22\00", align 1
@maxAllocatedDescs = internal global i32 0, align 4
@allocatedDescs = internal global ptr null, align 8
@numAllocatedDescs = internal global i32 0, align 4
@__func__.OpenTransientFilePerm = private unnamed_addr constant [22 x i8] c"OpenTransientFilePerm\00", align 1

; Function Attrs: nounwind uwtable
define internal zeroext i1 @ReleaseLruFile() #0 {
  %1 = alloca i1, align 1
  %2 = load i32, ptr @nfile, align 4
  %3 = icmp sgt i32 %2, 0
  br i1 %3, label %4, label %9

4:                                                ; preds = %0
  %5 = load ptr, ptr @VfdCache, align 8
  %6 = getelementptr inbounds %struct.vfd, ptr %5, i64 0
  %7 = getelementptr inbounds nuw %struct.vfd, ptr %6, i32 0, i32 4
  %8 = load i32, ptr %7, align 4
  call void @LruDelete(i32 noundef %8)
  store i1 true, ptr %1, align 1
  br label %10

9:                                                ; preds = %0
  store i1 false, ptr %1, align 1
  br label %10

10:                                               ; preds = %9, %4
  %11 = load i1, ptr %1, align 1
  ret i1 %11
}

; Function Attrs: nounwind uwtable
define internal void @ReleaseLruFiles() #0 {
  br label %1

1:                                                ; preds = %12, %0
  %2 = load i32, ptr @nfile, align 4
  %3 = load i32, ptr @numAllocatedDescs, align 4
  %4 = add i32 %2, %3
  %5 = load i32, ptr @numExternalFDs, align 4
  %6 = add i32 %4, %5
  %7 = load i32, ptr @max_safe_fds, align 4
  %8 = icmp sge i32 %6, %7
  br i1 %8, label %9, label %13

9:                                                ; preds = %1
  %10 = call zeroext i1 @ReleaseLruFile()
  br i1 %10, label %12, label %11

11:                                               ; preds = %9
  br label %13

12:                                               ; preds = %9
  br label %1, !llvm.loop !10

13:                                               ; preds = %11, %1
  ret void
}

; Function Attrs: nounwind uwtable
define dso_local i32 @OpenTransientFilePerm(ptr noundef %0, i32 noundef %1, i32 noundef %2) #0 {
  %4 = alloca i32, align 4
  %5 = alloca ptr, align 8
  %6 = alloca i32, align 4
  %7 = alloca i32, align 4
  %8 = alloca i32, align 4
  %9 = alloca ptr, align 8
  %10 = alloca i32, align 4
  store ptr %0, ptr %5, align 8
  store i32 %1, ptr %6, align 4
  store i32 %2, ptr %7, align 4
  call void @llvm.lifetime.start.p0(i64 4, ptr %8) #14
  %11 = call zeroext i1 @reserveAllocatedDesc()
  br i1 %11, label %26, label %12

12:                                               ; preds = %3
  br label %13

13:                                               ; preds = %12
  br i1 true, label %14, label %16

14:                                               ; preds = %13
  %15 = call zeroext i1 @errstart_cold(i32 noundef 21, ptr noundef null) #16
  br i1 %15, label %18, label %23

16:                                               ; preds = %13
  %17 = call zeroext i1 @errstart(i32 noundef 21, ptr noundef null)
  br i1 %17, label %18, label %23

18:                                               ; preds = %16, %14
  %19 = call i32 @errcode(i32 noundef 197)
  %20 = load i32, ptr @maxAllocatedDescs, align 4
  %21 = load ptr, ptr %5, align 8
  %22 = call i32 (ptr, ...) @errmsg(ptr noundef @.str.26, i32 noundef %20, ptr noundef %21)
  call void @errfinish(ptr noundef @.str.1, i32 noundef 2676, ptr noundef @__func__.OpenTransientFilePerm)
  br label %23

23:                                               ; preds = %18, %16, %14
  unreachable

24:                                               ; No predecessors!
  br label %25

25:                                               ; preds = %24
  br label %26

26:                                               ; preds = %25, %3
  call void @ReleaseLruFiles()
  %27 = load ptr, ptr %5, align 8
  %28 = load i32, ptr %6, align 4
  %29 = load i32, ptr %7, align 4
  %30 = call i32 @BasicOpenFilePerm(ptr noundef %27, i32 noundef %28, i32 noundef %29)
  store i32 %30, ptr %8, align 4
  %31 = load i32, ptr %8, align 4
  %32 = icmp sge i32 %31, 0
  br i1 %32, label %33, label %49

33:                                               ; preds = %26
  call void @llvm.lifetime.start.p0(i64 8, ptr %9) #14
  %34 = load ptr, ptr @allocatedDescs, align 8
  %35 = load i32, ptr @numAllocatedDescs, align 4
  %36 = sext i32 %35 to i64
  %37 = getelementptr inbounds %struct.AllocateDesc, ptr %34, i64 %36
  store ptr %37, ptr %9, align 8
  %38 = load ptr, ptr %9, align 8
  %39 = getelementptr inbounds nuw %struct.AllocateDesc, ptr %38, i32 0, i32 0
  store i32 3, ptr %39, align 8
  %40 = load i32, ptr %8, align 4
  %41 = load ptr, ptr %9, align 8
  %42 = getelementptr inbounds nuw %struct.AllocateDesc, ptr %41, i32 0, i32 2
  store i32 %40, ptr %42, align 8
  %43 = call i32 @GetCurrentSubTransactionId()
  %44 = load ptr, ptr %9, align 8
  %45 = getelementptr inbounds nuw %struct.AllocateDesc, ptr %44, i32 0, i32 1
  store i32 %43, ptr %45, align 4
  %46 = load i32, ptr @numAllocatedDescs, align 4
  %47 = add i32 %46, 1
  store i32 %47, ptr @numAllocatedDescs, align 4
  %48 = load i32, ptr %8, align 4
  store i32 %48, ptr %4, align 4
  store i32 1, ptr %10, align 4
  call void @llvm.lifetime.end.p0(i64 8, ptr %9) #14
  br label %50

49:                                               ; preds = %26
  store i32 -1, ptr %4, align 4
  store i32 1, ptr %10, align 4
  br label %50

50:                                               ; preds = %49, %33
  call void @llvm.lifetime.end.p0(i64 4, ptr %8) #14
  %51 = load i32, ptr %4, align 4
  ret i32 %51
}