; Function Attrs: nounwind uwtable
define dso_local range(i32 -1, -2147483648) i32 @OpenTransientFilePerm(ptr noundef %0, i32 noundef %1, i32 noundef %2) local_unnamed_addr #0 {
  %4 = tail call fastcc zeroext i1 @reserveAllocatedDesc()
  br i1 %4, label %10, label %5

5:                                                ; preds = %3
  %6 = tail call zeroext i1 @errstart_cold(i32 noundef 21, ptr noundef null) #27
  tail call void @llvm.assume(i1 %6)
  %7 = tail call i32 @errcode(i32 noundef 197) #25
  %8 = load i32, ptr @maxAllocatedDescs, align 4
  %9 = tail call i32 (ptr, ...) @errmsg(ptr noundef nonnull @.str.26, i32 noundef %8, ptr noundef %0) #25
  tail call void @errfinish(ptr noundef nonnull @.str.1, i32 noundef 2676, ptr noundef nonnull @__func__.OpenTransientFilePerm) #25
  unreachable

10:                                               ; preds = %3
  %11 = load i32, ptr @nfile, align 4
  %12 = load i32, ptr @numAllocatedDescs, align 4
  %13 = add i32 %12, %11
  %14 = load i32, ptr @numExternalFDs, align 4
  %15 = add i32 %13, %14
  %16 = load i32, ptr @max_safe_fds, align 4
  %.not1.i = icmp sge i32 %15, %16
  %17 = icmp sgt i32 %11, 0
  %or.cond2.i = and i1 %17, %.not1.i
  br i1 %or.cond2.i, label %ReleaseLruFile.exit.i, label %ReleaseLruFiles.exit

ReleaseLruFile.exit.i:                            ; preds = %10, %ReleaseLruFile.exit.i
  %18 = load ptr, ptr @VfdCache, align 8
  %19 = getelementptr inbounds nuw i8, ptr %18, i64 20
  %20 = load i32, ptr %19, align 4
  tail call fastcc void @LruDelete(i32 noundef %20)
  %21 = load i32, ptr @nfile, align 4
  %22 = load i32, ptr @numAllocatedDescs, align 4
  %23 = add i32 %22, %21
  %24 = load i32, ptr @numExternalFDs, align 4
  %25 = add i32 %23, %24
  %26 = load i32, ptr @max_safe_fds, align 4
  %.not.i = icmp sge i32 %25, %26
  %27 = icmp sgt i32 %21, 0
  %or.cond.i = and i1 %27, %.not.i
  br i1 %or.cond.i, label %ReleaseLruFile.exit.i, label %ReleaseLruFiles.exit, !llvm.loop !9

ReleaseLruFiles.exit:                             ; preds = %ReleaseLruFile.exit.i, %10
  %28 = tail call i32 @BasicOpenFilePerm(ptr noundef %0, i32 noundef %1, i32 noundef %2)
  %29 = icmp sgt i32 %28, -1
  br i1 %29, label %30, label %40

30:                                               ; preds = %ReleaseLruFiles.exit
  %31 = load ptr, ptr @allocatedDescs, align 8
  %32 = load i32, ptr @numAllocatedDescs, align 4
  %33 = sext i32 %32 to i64
  %34 = getelementptr inbounds %struct.AllocateDesc, ptr %31, i64 %33
  store i32 3, ptr %34, align 8
  %35 = getelementptr inbounds nuw i8, ptr %34, i64 8
  store i32 %28, ptr %35, align 8
  %36 = tail call i32 @GetCurrentSubTransactionId() #25
  %37 = getelementptr inbounds nuw i8, ptr %34, i64 4
  store i32 %36, ptr %37, align 4
  %38 = load i32, ptr @numAllocatedDescs, align 4
  %39 = add i32 %38, 1
  store i32 %39, ptr @numAllocatedDescs, align 4
  br label %40

40:                                               ; preds = %ReleaseLruFiles.exit, %30
  ret i32 %28
}